Microchip MPLAB XC8 Compiler V2.05 ()

Linker command line:

-W-3 --edf=C:\Program Files (x86)\Microchip\xc8\v2.05\pic\dat\en_msgs.txt \
  -pivt0x8=08h -cs \
  -h+dist/default/production\GCPlus2.0_Bootloader.X.production.sym \
  --cmf=dist/default/production\GCPlus2.0_Bootloader.X.production.cmf -z \
  -Q18F25K42 -oC:\Users\jeffa\AppData\Local\Temp\sc84.2 \
  --defsym=__MPLAB_BUILD=1 \
  -Mdist/default/production/GCPlus2.0_Bootloader.X.production.map -E1 \
  -ver=XC8 -ASTACK=0600h-07FFh -pstack=STACK -ACODE=00h-01FFFh \
  -ACONST=00h-01FFFh -ASMALLCONST=0800h-08FFhx24 -AMEDIUMCONST=0800h-01FFFh \
  -ACOMRAM=01h-05Fh -AABS1=00h-07FFh -ABIGRAM=01h-07FFh \
  -ARAM=060h-0FFh,0100h-01FFhx7 -ABANK0=060h-0FFh -ABANK1=0100h-01FFh \
  -ABANK2=0200h-02FFh -ABANK3=0300h-03FFh -ABANK4=0400h-04FFh \
  -ABANK5=0500h-05FFh -ABANK6=0600h-06FFh -ABANK7=0700h-07FFh \
  -ASFR=03800h-038FFhx7,03F00h-03F5Fh,03F60h-03FFFh -preset_vec=00h \
  -ppowerup=CODE,init -pramtop=0800h -psmallconst=SMALLCONST \
  -pmediumconst=MEDIUMCONST -pconst=CONST -AFARRAM=00h-00h \
  -ACONFIG=0300000h-0300009h -pconfig=CONFIG -AIDLOC=0200000h-020000Fh \
  -pidloc=IDLOC -AEEDATA=0310000h-03100FFh -peeprom_data=EEDATA \
  -prdata=COMRAM,nvrram=COMRAM,nvbit=COMRAM,rbss=COMRAM,rbit=COMRAM \
  -pfarbss=FARRAM,fardata=FARRAM,nvFARRAM=FARRAM \
  -pintsave_regs=BIGRAM,bigbss=BIGRAM,bigdata=BIGRAM -pbss=RAM \
  -pidata=CODE,irdata=CODE,ibigdata=CODE,ifardata=CODE -prparam=COMRAM \
  C:\Users\jeffa\AppData\Local\Temp\sc84.o \
  dist/default/production\GCPlus2.0_Bootloader.X.production.o 

Object code version is 3.11

Machine type is 18F25K42

Call graph: (short form)




                Name                               Link     Load   Length Selector   Space Scale
C:\Users\jeffa\AppData\Local\Temp\sc84.o
                init                                 1A       1A        4        4       0
                reset_vec                             0        0        4        0       0
                idloc                            200000   200000       10   200000       0
                config                           300000   300000        A   300000       0
dist/default/production\GCPlus2.0_Bootloader.X.production.o
                ivt0x8                                8        8       12        4       0
                text33                             1790     1790       12        4       0
                text32                             1342     1342       6A        4       0
                text31                              8E8      8E8      1B8        4       0
                text30                             12CC     12CC       76        4       0
                text29                             177E     177E       12        4       0
                text28                             14CE     14CE       58        4       0
                text27                             1154     1154       82        4       0
                text26                             176C     176C       12        4       0
                text25                             15A8     15A8       3C        4       0
                text24                              C52      C52       E2        4       0
                text23                             1042     1042       8A        4       0
                text22                              D34      D34       D8        4       0
                text21                             1526     1526       44        4       0
                text20                             10CC     10CC       88        4       0
                text19                             1682     1682       2E        4       0
                text18                              AA0      AA0      1B2        4       0
                text17                              E0C      E0C       D2        4       0
                text16                             164E     164E       34        4       0
                text15                             161A     161A       34        4       0
                text14                              EDE      EDE       C4        4       0
                text13                             156A     156A       3E        4       0
                text12                             15E4     15E4       36        4       0
                text11                             11D6     11D6       80        4       0
                text10                             1708     1708       2C        4       0
                text9                              16DC     16DC       2C        4       0
                text8                              1412     1412       64        4       0
                text7                               5DA      5DA      30E        4       0
                text6                              1758     1758       14        4       0
                text5                              1734     1734       24        4       0
                text4                              16B0     16B0       2C        4       0
                text3                              1256     1256       76        4       0
                text2                              1476     1476       58        4       0
                text1                              13AC     13AC       66        4       0
                text0                                1E       1E      5BC        4       0
                cstackCOMRAM                         2A       2A       25        1       1
                cstackBANK0                          60       60       97       60       1
                bssBANK5                            500      500      100      500       1
                bssBANK4                            400      400      100      400       1
                bssBANK3                            300      300      100      300       1
                bssBANK2                            200      200      100      200       1
                bssBANK1                            100      100       5A      100       1
                dataCOMRAM                           4F       4F        C        1       1
                bssCOMRAM                             1        1       29        1       1
                cinit                               FA2      FA2       A0        4       0
                idataCOMRAM                        17A2     17A2        C        4       0

TOTAL           Name                               Link     Load   Length     Space
        CLASS   STACK          

        CLASS   CODE           
                init                                 1A       1A        4         0
                reset_vec                             0        0        4         0
                ivt0x8                                8        8       12         0
                text33                             1790     1790       12         0
                text32                             1342     1342       6A         0
                text31                              8E8      8E8      1B8         0
                text30                             12CC     12CC       76         0
                text29                             177E     177E       12         0
                text28                             14CE     14CE       58         0
                text27                             1154     1154       82         0
                text26                             176C     176C       12         0
                text25                             15A8     15A8       3C         0
                text24                              C52      C52       E2         0
                text23                             1042     1042       8A         0
                text22                              D34      D34       D8         0
                text21                             1526     1526       44         0
                text20                             10CC     10CC       88         0
                text19                             1682     1682       2E         0
                text18                              AA0      AA0      1B2         0
                text17                              E0C      E0C       D2         0
                text16                             164E     164E       34         0
                text15                             161A     161A       34         0
                text14                              EDE      EDE       C4         0
                text13                             156A     156A       3E         0
                text12                             15E4     15E4       36         0
                text11                             11D6     11D6       80         0
                text10                             1708     1708       2C         0
                text9                              16DC     16DC       2C         0
                text8                              1412     1412       64         0
                text7                               5DA      5DA      30E         0
                text6                              1758     1758       14         0
                text5                              1734     1734       24         0
                text4                              16B0     16B0       2C         0
                text3                              1256     1256       76         0
                text2                              1476     1476       58         0
                text1                              13AC     13AC       66         0
                text0                                1E       1E      5BC         0
                cinit                               FA2      FA2       A0         0
                idataCOMRAM                        17A2     17A2        C         0

        CLASS   CONST          

        CLASS   SMALLCONST     

        CLASS   MEDIUMCONST    

        CLASS   COMRAM         
                cstackCOMRAM                         2A       2A       25         1
                dataCOMRAM                           4F       4F        C         1
                bssCOMRAM                             1        1       29         1

        CLASS   ABS1           

        CLASS   BIGRAM         

        CLASS   RAM            

        CLASS   BANK0          
                cstackBANK0                          60       60       97         1

        CLASS   BANK1          
                bssBANK1                            100      100       5A         1

        CLASS   BANK2          
                bssBANK2                            200      200      100         1

        CLASS   BANK3          
                bssBANK3                            300      300      100         1

        CLASS   BANK4          
                bssBANK4                            400      400      100         1

        CLASS   BANK5          
                bssBANK5                            500      500      100         1

        CLASS   BANK6          

        CLASS   BANK7          

        CLASS   SFR            

        CLASS   FARRAM         

        CLASS   CONFIG         
                config                           300000   300000        A         0

        CLASS   IDLOC          
                idloc                            200000   200000       10         0

        CLASS   EEDATA         



SEGMENTS        Name                           Load    Length   Top    Selector   Space  Class

                reset_vec                      000000  000004  000004         0       0  CODE    
                bssCOMRAM                      000001  00005A  00005B         1       1  COMRAM  
                ivt0x8                         000008  0017A6  0017AE         4       0  CODE    
                cstackBANK0                    000060  000097  0000F7        60       1  BANK0   
                bssBANK1                       000100  00005A  00015A       100       1  BANK1   
                bssBANK2                       000200  000100  000300       200       1  BANK2   
                bssBANK3                       000300  000100  000400       300       1  BANK3   
                bssBANK4                       000400  000100  000500       400       1  BANK4   
                bssBANK5                       000500  000100  000600       500       1  BANK5   
                idloc                          200000  000010  200010    200000       0  IDLOC   
                config                         300000  00000A  30000A    300000       0  CONFIG  


UNUSED ADDRESS RANGES

        Name                Unused          Largest block    Delta
        BANK0            0000F7-0000FF                9
        BANK1            00015A-0001FF               A6
        BANK6            000600-0006FF              100
        BANK7            000700-0007FF              100
        BIGRAM           00005B-00005F                5
                         0000F7-0000FF                9
                         00015A-0001FF               A6
                         000600-0007FF              200
        CODE             000004-000007                4
                         0017AE-001FFF              852
        COMRAM           00005B-00005F                5
        CONST            000004-000007                4
                         0017AE-001FFF              852
        EEDATA           310000-3100FF              100
        MEDIUMCONST      0017AE-001FFF              852
        RAM              0000F7-0000FF                9
                         00015A-0001FF               A6
                         000600-0007FF              100
        SFR              003800-003FFF              100
        SMALLCONST       0017AE-001FFF              100
        STACK            000600-0007FF              200

                                  Symbol Table

?___awdiv                      cstackCOMRAM 000030
?___wmul                       cstackCOMRAM 00002A
?_buttonsGetMapByte0           cstackCOMRAM 00002A
?_buttonsGetMapByte1           cstackCOMRAM 00002A
?_buttonsGetMessage            cstackCOMRAM 00002A
?_buttonsGetOrigins            cstackCOMRAM 00002A
ADCInit@cxCh                   cstackCOMRAM 00002B
ADCInit@cyCh                   cstackCOMRAM 00002C
ADCInit@i                      cstackCOMRAM 000032
ADCInit@sxCh                   cstackCOMRAM 000031
ADCInit@syCh                   cstackCOMRAM 00002A
EEPROMReadByte@address         cstackCOMRAM 00002A
EEPROMWriteByte@address        cstackCOMRAM 00002B
EEPROMWriteByte@data           cstackCOMRAM 00002A
IVTBASEH                       (abs)        003FD6
IVTBASEL                       (abs)        003FD5
IVTBASEU                       (abs)        003FD7
PGMEraseRow@addr               cstackCOMRAM 00002A
PGMReadBlock@addr              cstackCOMRAM 00002A
PGMReadBlock@data              cstackCOMRAM 00002C
PGMReadBlock@i                 cstackCOMRAM 000030
PGMWriteBlock@addr             cstackCOMRAM 00002E
PGMWriteBlock@data             cstackCOMRAM 000030
PGMWriteBlock@i                cstackCOMRAM 000034
SIGetCommand@i                 cstackCOMRAM 00002C
SIGetCommand@msg               cstackCOMRAM 00002A
SISendMessage@idx              cstackCOMRAM 000038
SISendMessage@leftToSend       cstackCOMRAM 000039
SISendMessage@len              cstackCOMRAM 000032
SISendMessage@msg              cstackCOMRAM 000030
_ADACQL                        (abs)        003EF3
_ADACT                         (abs)        003EFE
_ADCChannels                   dataCOMRAM   000055
_ADCInit                       text31       0008E8
_ADCLK                         (abs)        003EFF
_ADCON0                        (abs)        003EF8
_ADCON1                        (abs)        003EF9
_ADCON2                        (abs)        003EFA
_ADCON2bits                    (abs)        003EFA
_ADCON3                        (abs)        003EFB
_ADCPbits                      (abs)        003ED7
_ADCValues                     dataCOMRAM   00004F
_ADFLTRL                       (abs)        003EE6
_ADPCH                         (abs)        003EF1
_ADREF                         (abs)        003EFD
_ADRPT                         (abs)        003EEC
_ADTIF                         (abs)        01CD0B
_ANSELA                        (abs)        003A40
_ANSELB                        (abs)        003A50
_ANSELC                        (abs)        003A60
_ButtonsID                     bssCOMRAM    000021
_CCPTMRS1                      (abs)        003F5F
_CLC1CON                       (abs)        003C74
_CLC1GLS0                      (abs)        003C7A
_CLC1GLS1                      (abs)        003C7B
_CLC1GLS2                      (abs)        003C7C
_CLC1GLS3                      (abs)        003C7D
_CLC1POL                       (abs)        003C75
_CLC1SEL0                      (abs)        003C76
_CLC1SEL1                      (abs)        003C77
_CLC1SEL2                      (abs)        003C78
_CLC1SEL3                      (abs)        003C79
_CLC2CON                       (abs)        003C6A
_CLC2GLS0                      (abs)        003C70
_CLC2GLS1                      (abs)        003C71
_CLC2GLS2                      (abs)        003C72
_CLC2GLS3                      (abs)        003C73
_CLC2POL                       (abs)        003C6B
_CLC2SEL0                      (abs)        003C6C
_CLC2SEL1                      (abs)        003C6D
_CLC2SEL2                      (abs)        003C6E
_CLC2SEL3                      (abs)        003C6F
_CLC3CON                       (abs)        003C60
_CLC3GLS0                      (abs)        003C66
_CLC3GLS1                      (abs)        003C67
_CLC3GLS2                      (abs)        003C68
_CLC3GLS3                      (abs)        003C69
_CLC3POL                       (abs)        003C61
_CLC3SEL0                      (abs)        003C62
_CLC3SEL1                      (abs)        003C63
_CLC3SEL2                      (abs)        003C64
_CLC3SEL3                      (abs)        003C65
_CLC4CON                       (abs)        003C56
_CLC4GLS0                      (abs)        003C5C
_CLC4GLS1                      (abs)        003C5D
_CLC4GLS2                      (abs)        003C5E
_CLC4GLS3                      (abs)        003C5F
_CLC4POL                       (abs)        003C57
_CLC4SEL0                      (abs)        003C58
_CLC4SEL1                      (abs)        003C59
_CLC4SEL2                      (abs)        003C5A
_CLC4SEL3                      (abs)        003C5B
_DMA1CON0                      (abs)        003BFC
_DMA1CON0bits                  (abs)        003BFC
_DMA1CON1bits                  (abs)        003BFD
_DMA1DSAH                      (abs)        003BF1
_DMA1DSAL                      (abs)        003BF0
_DMA1DSZH                      (abs)        003BEF
_DMA1DSZL                      (abs)        003BEE
_DMA1SIRQ                      (abs)        003BFF
_DMA1SSAH                      (abs)        003BFA
_DMA1SSAL                      (abs)        003BF9
_DMA1SSAU                      (abs)        003BFB
_DMA1SSZH                      (abs)        003BF8
_DMA1SSZL                      (abs)        003BF7
_DMA2CON0                      (abs)        003BDC
_DMA2CON1bits                  (abs)        003BDD
_DMA2DSAH                      (abs)        003BD1
_DMA2DSAL                      (abs)        003BD0
_DMA2DSZH                      (abs)        003BCF
_DMA2DSZL                      (abs)        003BCE
_DMA2SIRQ                      (abs)        003BDF
_DMA2SSAH                      (abs)        003BDA
_DMA2SSAL                      (abs)        003BD9
_DMA2SSAU                      (abs)        003BDB
_DMA2SSZH                      (abs)        003BD8
_DMA2SSZL                      (abs)        003BD7
_EEPROMReadByte                text6        001758
_EEPROMWriteByte               text5        001734
_GIE                           (abs)        01FE97
_INTCON0                       (abs)        003FD2
_INTCON0bits                   (abs)        003FD2
_IPR1bits                      (abs)        003981
_IVTBASE                       (abs)        003FD5
_IVTLOCK                       (abs)        003FD4
_IVTLOCKED                     (abs)        01FEA0
_LATB                          (abs)        003FBB
_LUT_CX                        bssBANK2     000200
_LUT_CY                        bssBANK3     000300
_LUT_SX                        bssBANK4     000400
_LUT_SY                        bssBANK5     000500
_NCO1ACCL                      (abs)        003F38
_NVMADRL                       (abs)        0039E0
_NVMCON1                       (abs)        0039E5
_NVMCON1bits                   (abs)        0039E5
_NVMCON2                       (abs)        0039E6
_NVMDAT                        (abs)        0039E3
_NVMUnlock                     text29       00177E
_ODCONA                        (abs)        003A42
_ODCONB                        (abs)        003A52
_ODCONC                        (abs)        003A62
_PCL                           (abs)        003FF9
_PCLATH                        (abs)        003FFA
_PCLATU                        (abs)        003FFB
_PGMEraseRow                   text28       0014CE
_PGMReadBlock                  text30       0012CC
_PGMWriteBlock                 text27       001154
_PIE1bits                      (abs)        003991
_PIE9bits                      (abs)        003999
_PIR1bits                      (abs)        0039A1
_PIR4bits                      (abs)        0039A4
_PIR9bits                      (abs)        0039A9
_PORTA                         (abs)        003FCA
_PORTB                         (abs)        003FCB
_PORTBbits                     (abs)        003FCB
_PORTC                         (abs)        003FCC
_PPSLOCK                       (abs)        003ABF
_PPSLOCKbits                   (abs)        003ABF
_PWM5CON                       (abs)        003F6E
_PWM5DCH                       (abs)        003F6D
_PWM5DCL                       (abs)        003F6C
_RB4PPS                        (abs)        003A0C
_SIBitCounter                  bssCOMRAM    000020
_SIByteCounter                 bssCOMRAM    00001F
_SICMDReceived                 bssCOMRAM    00001E
_SIClear                       text26       00176C
_SIConfigureCLC                text24       000C52
_SIGetCommand                  text25       0015A8
_SIInit                        text23       001042
_SIInputMessage                bssBANK1     000100
_SISendMessage                 text22       000D34
_SITempByte                    bssCOMRAM    00001D
_SMT1CLK                       (abs)        003F21
_SMT1CON0                      (abs)        003F1E
_SMT1CON1                      (abs)        003F1F
_SMT1CON1bits                  (abs)        003F1F
_SMT1CPWL                      (abs)        003F18
_SMT1PRH                       (abs)        003F1C
_SMT1PRL                       (abs)        003F1B
_SMT1PRU                       (abs)        003F1D
_SMT1PWAIE                     (abs)        01CC8F
_SMT1PWAIF                     (abs)        01CD0F
_SMT1SIG                       (abs)        003F22
_SMT1SIGPPS                    (abs)        003AD2
_SMT1TMRH                      (abs)        003F13
_SMT1TMRL                      (abs)        003F12
_SMT1TMRU                      (abs)        003F14
_SMT1WIN                       (abs)        003F23
_SPI1BAUD                      (abs)        003D19
_SPI1CLK                       (abs)        003D1C
_SPI1CON0                      (abs)        003D14
_SPI1CON1                      (abs)        003D15
_SPI1CON2                      (abs)        003D16
_SPI1INTFbits                  (abs)        003D1A
_SPI1STATUSbits                (abs)        003D17
_SPI1TCNTL                     (abs)        003D12
_SPI1TWIDTH                    (abs)        003D18
_SPI1TXB                       (abs)        003D11
_STKPTR                        (abs)        003FFC
_T0CON0                        (abs)        003FB8
_T0CON1                        (abs)        003FB9
_T2CLK                         (abs)        003FAE
_T2CLKCON                      (abs)        003FAE
_T2CON                         (abs)        003FAC
_T2HLT                         (abs)        003FAD
_T2PR                          (abs)        003FAB
_T2RST                         (abs)        003FAF
_T2TMR                         (abs)        003FAA
_T6CLK                         (abs)        003F96
_T6CON                         (abs)        003F94
_T6HLT                         (abs)        003F95
_T6INPPS                       (abs)        003ACC
_T6PR                          (abs)        003F93
_T6RST                         (abs)        003F97
_T6TMR                         (abs)        003F92
_TABLAT                        (abs)        003FF5
_TBLPTRH                       (abs)        003FF7
_TBLPTRL                       (abs)        003FF6
_TBLPTRU                       (abs)        003FF8
_TMR0H                         (abs)        003FB7
_TMR0IF                        (abs)        01CD1F
_TRISA                         (abs)        003FC2
_TRISB                         (abs)        003FC3
_TRISBbits                     (abs)        003FC3
_TRISC                         (abs)        003FC4
_WPUA                          (abs)        003A41
_WPUB                          (abs)        003A51
_WPUC                          (abs)        003A61
__CFG_BBEN$ON                  (abs)        000000
__CFG_BBSIZE$BBSIZE_4096       (abs)        000000
__CFG_BOREN$SBORDIS            (abs)        000000
__CFG_BORV$VBOR_2P85           (abs)        000000
__CFG_CLKOUTEN$OFF             (abs)        000000
__CFG_CP$OFF                   (abs)        000000
__CFG_CSWEN$ON                 (abs)        000000
__CFG_DEBUG$OFF                (abs)        000000
__CFG_FCMEN$ON                 (abs)        000000
__CFG_FEXTOSC$OFF              (abs)        000000
__CFG_IVT1WAY$OFF              (abs)        000000
__CFG_LPBOREN$OFF              (abs)        000000
__CFG_LVP$ON                   (abs)        000000
__CFG_MCLRE$EXTMCLR            (abs)        000000
__CFG_MVECEN$OFF               (abs)        000000
__CFG_PPS1WAY$OFF              (abs)        000000
__CFG_PR1WAY$OFF               (abs)        000000
__CFG_PWRTS$PWRT_OFF           (abs)        000000
__CFG_RSTOSC$HFINTOSC_64MHZ    (abs)        000000
__CFG_SAFEN$ON                 (abs)        000000
__CFG_STVREN$ON                (abs)        000000
__CFG_WDTCCS$LFINTOSC          (abs)        000000
__CFG_WDTCPS$WDTCPS_12         (abs)        000000
__CFG_WDTCWS$WDTCWS_7          (abs)        000000
__CFG_WDTE$ON                  (abs)        000000
__CFG_WRTAPP$OFF               (abs)        000000
__CFG_WRTB$ON                  (abs)        000000
__CFG_WRTC$OFF                 (abs)        000000
__CFG_WRTD$OFF                 (abs)        000000
__CFG_WRTSAF$OFF               (abs)        000000
__CFG_XINST$OFF                (abs)        000000
__CFG_ZCD$OFF                  (abs)        000000
__HRAM                         (abs)        000000
__Habs1                        abs1         000000
__Hbank0                       bank0        000000
__Hbank1                       bank1        000000
__Hbank2                       bank2        000000
__Hbank3                       bank3        000000
__Hbank4                       bank4        000000
__Hbank5                       bank5        000000
__Hbank6                       bank6        000000
__Hbank7                       bank7        000000
__Hbigbss                      bigbss       000000
__Hbigdata                     bigdata      000000
__Hbigram                      bigram       000000
__Hbss                         bss          000000
__HbssBANK1                    bssBANK1     000000
__HbssBANK2                    bssBANK2     000000
__HbssBANK3                    bssBANK3     000000
__HbssBANK4                    bssBANK4     000000
__HbssBANK5                    bssBANK5     000000
__HbssCOMRAM                   bssCOMRAM    000000
__Hcinit                       cinit        000000
__Hclrtext                     clrtext      000000
__Hcomram                      comram       000000
__Hconfig                      config       30000A
__Hconst                       const        000000
__HcstackBANK0                 cstackBANK0  000000
__HcstackCOMRAM                cstackCOMRAM 000000
__Hdata                        data         000000
__HdataCOMRAM                  dataCOMRAM   000000
__Heeprom_data                 eeprom_data  000000
__Hfarbss                      farbss       000000
__Hfardata                     fardata      000000
__Hibigdata                    ibigdata     000000
__Hidata                       idata        000000
__HidataCOMRAM                 idataCOMRAM  000000
__Hidloc                       idloc        200010
__Hifardata                    ifardata     000000
__Hinit                        init         00001E
__Hintsave_regs                intsave_regs 000000
__Hirdata                      irdata       000000
__Hivt0x8                      ivt0x8       00001A
__Hmediumconst                 mediumconst  000000
__HnvFARRAM                    nvFARRAM     000000
__Hnvbit                       nvbit        000000
__Hnvrram                      nvrram       000000
__Hparam                       rparam       000000
__Hpowerup                     powerup      000000
__Hram                         ram          000000
__Hramtop                      ramtop       000800
__Hrbit                        rbit         000000
__Hrbss                        rbss         000000
__Hrdata                       rdata        000000
__Hreset_vec                   reset_vec    000004
__Hrparam                      rparam       000000
__Hsfr                         sfr          000000
__Hsmallconst                  smallconst   000000
__Hspace_0                     (abs)        30000A
__Hspace_1                     (abs)        000600
__Hspace_2                     (abs)        000000
__Hstack                       stack        000000
__Hstruct                      struct       000000
__Htemp                        temp         000000
__Htext                        text         000000
__Htext0                       text0        000000
__Htext1                       text1        000000
__Htext10                      text10       000000
__Htext11                      text11       000000
__Htext12                      text12       000000
__Htext13                      text13       000000
__Htext14                      text14       000000
__Htext15                      text15       000000
__Htext16                      text16       000000
__Htext17                      text17       000000
__Htext18                      text18       000000
__Htext19                      text19       000000
__Htext2                       text2        000000
__Htext20                      text20       000000
__Htext21                      text21       000000
__Htext22                      text22       000000
__Htext23                      text23       000000
__Htext24                      text24       000000
__Htext25                      text25       000000
__Htext26                      text26       000000
__Htext27                      text27       000000
__Htext28                      text28       000000
__Htext29                      text29       000000
__Htext3                       text3        000000
__Htext30                      text30       000000
__Htext31                      text31       000000
__Htext32                      text32       000000
__Htext33                      text33       000000
__Htext4                       text4        000000
__Htext5                       text5        000000
__Htext6                       text6        000000
__Htext7                       text7        000000
__Htext8                       text8        000000
__Htext9                       text9        000000
__LRAM                         (abs)        000001
__Labs1                        abs1         000000
__Lbank0                       bank0        000000
__Lbank1                       bank1        000000
__Lbank2                       bank2        000000
__Lbank3                       bank3        000000
__Lbank4                       bank4        000000
__Lbank5                       bank5        000000
__Lbank6                       bank6        000000
__Lbank7                       bank7        000000
__Lbigbss                      bigbss       000000
__Lbigdata                     bigdata      000000
__Lbigram                      bigram       000000
__Lbss                         bss          000000
__LbssBANK1                    bssBANK1     000000
__LbssBANK2                    bssBANK2     000000
__LbssBANK3                    bssBANK3     000000
__LbssBANK4                    bssBANK4     000000
__LbssBANK5                    bssBANK5     000000
__LbssCOMRAM                   bssCOMRAM    000000
__Lcinit                       cinit        000000
__Lclrtext                     clrtext      000000
__Lcomram                      comram       000000
__Lconfig                      config       300000
__Lconst                       const        000000
__LcstackBANK0                 cstackBANK0  000000
__LcstackCOMRAM                cstackCOMRAM 000000
__Ldata                        data         000000
__LdataCOMRAM                  dataCOMRAM   000000
__Leeprom_data                 eeprom_data  000000
__Lfarbss                      farbss       000000
__Lfardata                     fardata      000000
__Libigdata                    ibigdata     000000
__Lidata                       idata        000000
__LidataCOMRAM                 idataCOMRAM  000000
__Lidloc                       idloc        200000
__Lifardata                    ifardata     000000
__Linit                        init         00001A
__Lintsave_regs                intsave_regs 000000
__Lirdata                      irdata       000000
__Livt0x8                      ivt0x8       000008
__Lmediumconst                 mediumconst  000000
__LnvFARRAM                    nvFARRAM     000000
__Lnvbit                       nvbit        000000
__Lnvrram                      nvrram       000000
__Lparam                       rparam       000000
__Lpowerup                     powerup      000000
__Lram                         ram          000000
__Lramtop                      ramtop       000800
__Lrbit                        rbit         000000
__Lrbss                        rbss         000000
__Lrdata                       rdata        000000
__Lreset_vec                   reset_vec    000000
__Lrparam                      rparam       000000
__Lsfr                         sfr          000000
__Lsmallconst                  smallconst   000000
__Lspace_0                     (abs)        000000
__Lspace_1                     (abs)        000000
__Lspace_2                     (abs)        000000
__Lstack                       stack        000000
__Lstruct                      struct       000000
__Ltemp                        temp         000000
__Ltext                        text         000000
__Ltext0                       text0        000000
__Ltext1                       text1        000000
__Ltext10                      text10       000000
__Ltext11                      text11       000000
__Ltext12                      text12       000000
__Ltext13                      text13       000000
__Ltext14                      text14       000000
__Ltext15                      text15       000000
__Ltext16                      text16       000000
__Ltext17                      text17       000000
__Ltext18                      text18       000000
__Ltext19                      text19       000000
__Ltext2                       text2        000000
__Ltext20                      text20       000000
__Ltext21                      text21       000000
__Ltext22                      text22       000000
__Ltext23                      text23       000000
__Ltext24                      text24       000000
__Ltext25                      text25       000000
__Ltext26                      text26       000000
__Ltext27                      text27       000000
__Ltext28                      text28       000000
__Ltext29                      text29       000000
__Ltext3                       text3        000000
__Ltext30                      text30       000000
__Ltext31                      text31       000000
__Ltext32                      text32       000000
__Ltext33                      text33       000000
__Ltext4                       text4        000000
__Ltext5                       text5        000000
__Ltext6                       text6        000000
__Ltext7                       text7        000000
__Ltext8                       text8        000000
__Ltext9                       text9        000000
__S0                           (abs)        30000A
__S1                           (abs)        000600
__S2                           (abs)        000000
___awdiv                       text20       0010CC
___awdiv@counter               cstackCOMRAM 000034
___awdiv@dividend              cstackCOMRAM 000030
___awdiv@divisor               cstackCOMRAM 000032
___awdiv@quotient              cstackCOMRAM 000036
___awdiv@sign                  cstackCOMRAM 000035
___inthi_sp                    stack        000000
___intlo_sp                    stack        000000
___param_bank                  (abs)        000000
___rparam_used                 (abs)        000001
___sp                          stack        000000
___wmul                        text19       001682
___wmul@multiplicand           cstackCOMRAM 00002C
___wmul@multiplier             cstackCOMRAM 00002A
___wmul@product                cstackCOMRAM 00002E
__accesstop                    (abs)        000060
__activetblptr                 (abs)        000002
__end_of_ADCInit               text31       000AA0
__end_of_EEPROMReadByte        text6        00176C
__end_of_EEPROMWriteByte       text5        001758
__end_of_NVMUnlock             text29       001790
__end_of_PGMEraseRow           text28       001526
__end_of_PGMReadBlock          text30       001342
__end_of_PGMWriteBlock         text27       0011D6
__end_of_SIClear               text26       00177E
__end_of_SIConfigureCLC        text24       000D34
__end_of_SIGetCommand          text25       0015E4
__end_of_SIInit                text23       0010CC
__end_of_SISendMessage         text22       000E0C
__end_of___awdiv               text20       001154
__end_of___wmul                text19       0016B0
__end_of__initialization       cinit        001038
__end_of_bootPayload           text21       00156A
__end_of_buttonsBuildLUT       text18       000C52
__end_of_buttonsBuildLUTs      text17       000EDE
__end_of_buttonsGetMapByte0    text16       001682
__end_of_buttonsGetMapByte1    text15       00164E
__end_of_buttonsGetMessage     text14       000FA2
__end_of_buttonsGetOrigins     text13       0015A8
__end_of_buttonsInit           text11       001256
__end_of_buttonsSetMapByte0    text10       001734
__end_of_buttonsSetMapByte1    text9        001708
__end_of_buttonsSetOrigins     text8        001476
__end_of_buttonsUpdate         text7        0008E8
__end_of_configFlashAll        text4        0016DC
__end_of_configInit            text2        0014CE
__end_of_configSetDefault      text3        0012CC
__end_of_hi_int                text32       0013AC
__end_of_main                  text0        0005DA
__end_of_memset                text12       00161A
__end_of_portsInit             text1        001412
__end_ofi2_SIClear             text33       0017A2
__initialization               cinit        000FA2
__mediumconst                  mediumconst  000000
__pbssBANK1                    bssBANK1     000100
__pbssBANK2                    bssBANK2     000200
__pbssBANK3                    bssBANK3     000300
__pbssBANK4                    bssBANK4     000400
__pbssBANK5                    bssBANK5     000500
__pbssCOMRAM                   bssCOMRAM    000001
__pcinit                       cinit        000FA2
__pcstackBANK0                 cstackBANK0  000060
__pcstackCOMRAM                cstackCOMRAM 00002A
__pdataCOMRAM                  dataCOMRAM   00004F
__pidataCOMRAM                 idataCOMRAM  0017A2
__pivt0x8                      ivt0x8       000008
__ptext0                       text0        00001E
__ptext1                       text1        0013AC
__ptext10                      text10       001708
__ptext11                      text11       0011D6
__ptext12                      text12       0015E4
__ptext13                      text13       00156A
__ptext14                      text14       000EDE
__ptext15                      text15       00161A
__ptext16                      text16       00164E
__ptext17                      text17       000E0C
__ptext18                      text18       000AA0
__ptext19                      text19       001682
__ptext2                       text2        001476
__ptext20                      text20       0010CC
__ptext21                      text21       001526
__ptext22                      text22       000D34
__ptext23                      text23       001042
__ptext24                      text24       000C52
__ptext25                      text25       0015A8
__ptext26                      text26       00176C
__ptext27                      text27       001154
__ptext28                      text28       0014CE
__ptext29                      text29       00177E
__ptext3                       text3        001256
__ptext30                      text30       0012CC
__ptext31                      text31       0008E8
__ptext32                      text32       001342
__ptext33                      text33       001790
__ptext4                       text4        0016B0
__ptext5                       text5        001734
__ptext6                       text6        001758
__ptext7                       text7        0005DA
__ptext8                       text8        001412
__ptext9                       text9        0016DC
__ramtop                       ramtop       000800
__size_of_ADCInit              (abs)        000000
__size_of_EEPROMReadByte       (abs)        000000
__size_of_EEPROMWriteByte      (abs)        000000
__size_of_NVMUnlock            (abs)        000000
__size_of_PGMEraseRow          (abs)        000000
__size_of_PGMReadBlock         (abs)        000000
__size_of_PGMWriteBlock        (abs)        000000
__size_of_SIClear              (abs)        000000
__size_of_SIConfigureCLC       (abs)        000000
__size_of_SIGetCommand         (abs)        000000
__size_of_SIInit               (abs)        000000
__size_of_SISendMessage        (abs)        000000
__size_of___awdiv              (abs)        000000
__size_of___wmul               (abs)        000000
__size_of_bootPayload          (abs)        000000
__size_of_buttonsBuildLUT      (abs)        000000
__size_of_buttonsBuildLUTs     (abs)        000000
__size_of_buttonsGetMapByte0   (abs)        000000
__size_of_buttonsGetMapByte1   (abs)        000000
__size_of_buttonsGetMessage    (abs)        000000
__size_of_buttonsGetOrigins    (abs)        000000
__size_of_buttonsInit          (abs)        000000
__size_of_buttonsSetMapByte0   (abs)        000000
__size_of_buttonsSetMapByte1   (abs)        000000
__size_of_buttonsSetOrigins    (abs)        000000
__size_of_buttonsUpdate        (abs)        000000
__size_of_configFlashAll       (abs)        000000
__size_of_configInit           (abs)        000000
__size_of_configSetDefault     (abs)        000000
__size_of_hi_int               (abs)        000000
__size_of_main                 (abs)        000000
__size_of_memset               (abs)        000000
__size_of_portsInit            (abs)        000000
__size_ofi2_SIClear            (abs)        000000
__smallconst                   smallconst   000000
_bootPayload                   text21       001526
_buttonsBuildLUT               text18       000AA0
_buttonsBuildLUT$1169          cstackCOMRAM 000043
_buttonsBuildLUTs              text17       000E0C
_buttonsGetMapByte0            text16       00164E
_buttonsGetMapByte1            text15       00161A
_buttonsGetMessage             text14       000EDE
_buttonsGetOrigins             text13       00156A
_buttonsInit                   text11       0011D6
_buttonsMapByte0               bssBANK1     00014B
_buttonsMapByte1               bssBANK1     00013C
_buttonsMessage                bssCOMRAM    000022
_buttonsSetMapByte0            text10       001708
_buttonsSetMapByte1            text9        0016DC
_buttonsSetOrigins             text8        001412
_buttonsTimers                 bssCOMRAM    000001
_buttonsUpdate                 text7        0005DA
_config                        bssBANK1     000124
_configFlashAll                text4        0016B0
_configInit                    text2        001476
_configSetDefault              text3        001256
_hi_int                        text32       001342
_main                          text0        00001E
_memset                        text12       0015E4
_origins                       bssCOMRAM    000010
_outButtons                    bssCOMRAM    000016
_portsInit                     text1        0013AC
_prevButtons                   bssCOMRAM    00001A
buttonsBuildLUT@LUT            cstackCOMRAM 000038
buttonsBuildLUT@dz             cstackCOMRAM 00003D
buttonsBuildLUT@dzMode         cstackCOMRAM 00003E
buttonsBuildLUT@i              cstackCOMRAM 000049
buttonsBuildLUT@invert         cstackCOMRAM 00003F
buttonsBuildLUT@maxVal         cstackCOMRAM 00003B
buttonsBuildLUT@minVal         cstackCOMRAM 00003A
buttonsBuildLUT@origin         cstackCOMRAM 00003C
buttonsBuildLUT@radius         cstackCOMRAM 00004B
buttonsBuildLUT@range          cstackCOMRAM 000045
buttonsBuildLUT@tempVal        cstackCOMRAM 000047
buttonsGetMapByte0@i           cstackCOMRAM 00002C
buttonsGetMapByte1@i           cstackCOMRAM 00002C
buttonsGetMessage@analogMode   cstackCOMRAM 00002D
buttonsGetMessage@triggersMode cstackCOMRAM 00002A
buttonsSetMapByte0@i           cstackCOMRAM 00002C
buttonsSetMapByte0@map         cstackCOMRAM 00002A
buttonsSetMapByte1@i           cstackCOMRAM 00002C
buttonsSetMapByte1@map         cstackCOMRAM 00002A
buttonsSetOrigins@triggersMode cstackCOMRAM 00002A
buttonsUpdate@PA               cstackCOMRAM 00002A
buttonsUpdate@PB               cstackCOMRAM 00002B
buttonsUpdate@PC               cstackCOMRAM 00002C
buttonsUpdate@i                cstackCOMRAM 00002D
buttonsUpdate@toggledButtons   cstackCOMRAM 00002E
configFlashAll@data            cstackCOMRAM 00002C
configFlashAll@i               cstackCOMRAM 00002E
configInit@data                cstackCOMRAM 000032
configInit@i                   cstackCOMRAM 000034
end_of_initialization          cinit        001038
i2_SIClear                     text33       001790
intlevel0                      text         000000
intlevel1                      text         000000
intlevel2                      text         000000
intlevel3                      text         000000
ivt0x8_base                    ivt0x8       000008
main@addr                      cstackBANK0  0000F0
main@btnMsg                    cstackBANK0  0000C4
main@btnMsg_374                cstackBANK0  0000C6
main@cmd                       cstackBANK0  0000A0
main@cmdLen                    cstackBANK0  0000EF
main@flashBuffer               cstackBANK0  000060
main@flashBufferIdx            cstackBANK0  0000EE
main@gcpLocked                 cstackBANK0  0000F2
main@i                         cstackBANK0  0000F6
main@inBut                     cstackBANK0  0000F3
main@len                       cstackBANK0  0000EC
main@len_375                   cstackBANK0  0000ED
main@msgAnswer                 cstackBANK0  0000C8
memset@c                       cstackCOMRAM 00002C
memset@n                       cstackCOMRAM 00002E
memset@p                       cstackCOMRAM 000030
memset@p1                      cstackCOMRAM 00002A
portsInit@state                cstackCOMRAM 00002A
stackhi                        (abs)        0007FF
stacklo                        (abs)        000600
start                          init         00001A
start_initialization           cinit        000FA2


FUNCTION INFORMATION:

 *************** function _main *****************
 Defined at:
		line 79 in file "main.c"
 Parameters:    Size  Location     Type
		None
 Auto vars:     Size  Location     Type
  len             1  141[BANK0 ] unsigned char 
  len             1  140[BANK0 ] unsigned char 
  btnMsg          2  102[BANK0 ] PTR unsigned char 
		 -> buttonsMessage(8), 
  btnMsg          2  100[BANK0 ] PTR unsigned char 
		 -> buttonsMessage(8), 
  flashBuffer    64    0[BANK0 ] unsigned char [64]
  msgAnswer      36  104[BANK0 ] unsigned char [36]
  cmd            36   64[BANK0 ] unsigned char [36]
  inBut           3  147[BANK0 ] struct .
  addr            2  144[BANK0 ] unsigned int 
  i               1  150[BANK0 ] unsigned char 
  gcpLocked       1  146[BANK0 ] unsigned char 
  cmdLen          1  143[BANK0 ] unsigned char 
  flashBufferI    1  142[BANK0 ] unsigned char 
 Return value:  Size  Location     Type
                  1    wreg      void 
 Registers used:
		wreg, fsr1l, fsr1h, fsr2l, fsr2h, status,2, status,0, prodl, prodh, cstack
 Tracked objects:
		On entry : 
		On exit  : 
		Unchanged: 
 Data sizes:     COMRAM   BANK0   BANK1   BANK2   BANK3   BANK4   BANK5   BANK6   BANK7
      Params:         0       0       0       0       0       0       0       0       0
      Locals:         0     151       0       0       0       0       0       0       0
      Temps:          2       0       0       0       0       0       0       0       0
      Totals:         2     151       0       0       0       0       0       0       0
Total ram usage:      153 bytes
 Hardware stack levels required when called:    6
 This function calls:
		_ADCInit
		_EEPROMReadByte
		_EEPROMWriteByte
		_PGMReadBlock
		_PGMWriteBlock
		_SIClear
		_SIGetCommand
		_SIInit
		_SISendMessage
		_bootPayload
		_buttonsBuildLUTs
		_buttonsGetMapByte0
		_buttonsGetMapByte1
		_buttonsGetMessage
		_buttonsGetOrigins
		_buttonsInit
		_buttonsSetMapByte0
		_buttonsSetMapByte1
		_buttonsSetOrigins
		_buttonsUpdate
		_configFlashAll
		_configInit
		_configSetDefault
		_portsInit
 This function is called by:
		Startup code after reset
 This function uses a non-reentrant model


 *************** function _portsInit *****************
 Defined at:
		line 460 in file "main.c"
 Parameters:    Size  Location     Type
		None
 Auto vars:     Size  Location     Type
  state           1    0[COMRAM] unsigned char 
 Return value:  Size  Location     Type
                  1    wreg      void 
 Registers used:
		wreg, status,2
 Tracked objects:
		On entry : 
		On exit  : 
		Unchanged: 
 Data sizes:     COMRAM   BANK0   BANK1   BANK2   BANK3   BANK4   BANK5   BANK6   BANK7
      Params:         0       0       0       0       0       0       0       0       0
      Locals:         1       0       0       0       0       0       0       0       0
      Temps:          0       0       0       0       0       0       0       0       0
      Totals:         1       0       0       0       0       0       0       0       0
Total ram usage:        1 bytes
 Hardware stack levels used:    1
 Hardware stack levels required when called:    2
 This function calls:
		Nothing
 This function is called by:
		_main
 This function uses a non-reentrant model


 *************** function _configInit *****************
 Defined at:
		line 31 in file "config.c"
 Parameters:    Size  Location     Type
		None
 Auto vars:     Size  Location     Type
  data            2    8[COMRAM] PTR unsigned char 
		 -> config(24), 
  i               1   10[COMRAM] unsigned char 
 Return value:  Size  Location     Type
                  1    wreg      void 
 Registers used:
		wreg, fsr2l, fsr2h, status,2, status,0, cstack
 Tracked objects:
		On entry : 
		On exit  : 
		Unchanged: 
 Data sizes:     COMRAM   BANK0   BANK1   BANK2   BANK3   BANK4   BANK5   BANK6   BANK7
      Params:         0       0       0       0       0       0       0       0       0
      Locals:         3       0       0       0       0       0       0       0       0
      Temps:          0       0       0       0       0       0       0       0       0
      Totals:         3       0       0       0       0       0       0       0       0
Total ram usage:        3 bytes
 Hardware stack levels used:    1
 Hardware stack levels required when called:    5
 This function calls:
		_EEPROMReadByte
		_configFlashAll
		_configSetDefault
 This function is called by:
		_main
 This function uses a non-reentrant model


 *************** function _configSetDefault *****************
 Defined at:
		line 47 in file "config.c"
 Parameters:    Size  Location     Type
		None
 Auto vars:     Size  Location     Type
		None
 Return value:  Size  Location     Type
                  1    wreg      void 
 Registers used:
		wreg, fsr2l, fsr2h, status,2, status,0, cstack
 Tracked objects:
		On entry : 
		On exit  : 
		Unchanged: 
 Data sizes:     COMRAM   BANK0   BANK1   BANK2   BANK3   BANK4   BANK5   BANK6   BANK7
      Params:         0       0       0       0       0       0       0       0       0
      Locals:         0       0       0       0       0       0       0       0       0
      Temps:          0       0       0       0       0       0       0       0       0
      Totals:         0       0       0       0       0       0       0       0       0
Total ram usage:        0 bytes
 Hardware stack levels used:    1
 Hardware stack levels required when called:    3
 This function calls:
		_memset
 This function is called by:
		_main
		_configInit
 This function uses a non-reentrant model


 *************** function _configFlashAll *****************
 Defined at:
		line 80 in file "config.c"
 Parameters:    Size  Location     Type
		None
 Auto vars:     Size  Location     Type
  data            2    2[COMRAM] PTR unsigned char 
		 -> config(24), 
  i               1    4[COMRAM] unsigned char 
 Return value:  Size  Location     Type
                  1    wreg      void 
 Registers used:
		wreg, fsr2l, fsr2h, status,2, status,0, cstack
 Tracked objects:
		On entry : 
		On exit  : 
		Unchanged: 
 Data sizes:     COMRAM   BANK0   BANK1   BANK2   BANK3   BANK4   BANK5   BANK6   BANK7
      Params:         0       0       0       0       0       0       0       0       0
      Locals:         3       0       0       0       0       0       0       0       0
      Temps:          0       0       0       0       0       0       0       0       0
      Totals:         3       0       0       0       0       0       0       0       0
Total ram usage:        3 bytes
 Hardware stack levels used:    1
 Hardware stack levels required when called:    4
 This function calls:
		_EEPROMWriteByte
 This function is called by:
		_main
		_configInit
 This function uses a non-reentrant model


 *************** function _EEPROMWriteByte *****************
 Defined at:
		line 120 in file "nvm.c"
 Parameters:    Size  Location     Type
  address         1    wreg     unsigned char 
  data            1    0[COMRAM] unsigned char 
 Auto vars:     Size  Location     Type
  address         1    1[COMRAM] unsigned char 
 Return value:  Size  Location     Type
                  1    wreg      void 
 Registers used:
		wreg, status,2, cstack
 Tracked objects:
		On entry : 
		On exit  : 
		Unchanged: 
 Data sizes:     COMRAM   BANK0   BANK1   BANK2   BANK3   BANK4   BANK5   BANK6   BANK7
      Params:         1       0       0       0       0       0       0       0       0
      Locals:         1       0       0       0       0       0       0       0       0
      Temps:          0       0       0       0       0       0       0       0       0
      Totals:         2       0       0       0       0       0       0       0       0
Total ram usage:        2 bytes
 Hardware stack levels used:    1
 Hardware stack levels required when called:    3
 This function calls:
		_NVMUnlock
 This function is called by:
		_main
		_configFlashAll
 This function uses a non-reentrant model


 *************** function _EEPROMReadByte *****************
 Defined at:
		line 113 in file "nvm.c"
 Parameters:    Size  Location     Type
  address         1    wreg     unsigned char 
 Auto vars:     Size  Location     Type
  address         1    0[COMRAM] unsigned char 
 Return value:  Size  Location     Type
                  1    wreg      unsigned char 
 Registers used:
		wreg, status,2
 Tracked objects:
		On entry : 
		On exit  : 
		Unchanged: 
 Data sizes:     COMRAM   BANK0   BANK1   BANK2   BANK3   BANK4   BANK5   BANK6   BANK7
      Params:         0       0       0       0       0       0       0       0       0
      Locals:         1       0       0       0       0       0       0       0       0
      Temps:          0       0       0       0       0       0       0       0       0
      Totals:         1       0       0       0       0       0       0       0       0
Total ram usage:        1 bytes
 Hardware stack levels used:    1
 Hardware stack levels required when called:    2
 This function calls:
		Nothing
 This function is called by:
		_main
		_configInit
 This function uses a non-reentrant model


 *************** function _buttonsUpdate *****************
 Defined at:
		line 92 in file "buttons.c"
 Parameters:    Size  Location     Type
		None
 Auto vars:     Size  Location     Type
  toggledButto    3    4[COMRAM] struct .
  i               1    3[COMRAM] unsigned char 
  PC              1    2[COMRAM] unsigned char 
  PB              1    1[COMRAM] unsigned char 
  PA              1    0[COMRAM] unsigned char 
 Return value:  Size  Location     Type
                  1    wreg      void 
 Registers used:
		wreg, fsr2l, fsr2h, status,2, status,0
 Tracked objects:
		On entry : 
		On exit  : 
		Unchanged: 
 Data sizes:     COMRAM   BANK0   BANK1   BANK2   BANK3   BANK4   BANK5   BANK6   BANK7
      Params:         0       0       0       0       0       0       0       0       0
      Locals:         7       0       0       0       0       0       0       0       0
      Temps:          0       0       0       0       0       0       0       0       0
      Totals:         7       0       0       0       0       0       0       0       0
Total ram usage:        7 bytes
 Hardware stack levels used:    1
 Hardware stack levels required when called:    2
 This function calls:
		Nothing
 This function is called by:
		_main
 This function uses a non-reentrant model


 *************** function _buttonsSetOrigins *****************
 Defined at:
		line 231 in file "buttons.c"
 Parameters:    Size  Location     Type
  triggersMode    1    wreg     unsigned char 
 Auto vars:     Size  Location     Type
  triggersMode    1    0[COMRAM] unsigned char 
 Return value:  Size  Location     Type
                  1    wreg      void 
 Registers used:
		wreg, fsr2l, fsr2h, status,2, status,0
 Tracked objects:
		On entry : 
		On exit  : 
		Unchanged: 
 Data sizes:     COMRAM   BANK0   BANK1   BANK2   BANK3   BANK4   BANK5   BANK6   BANK7
      Params:         0       0       0       0       0       0       0       0       0
      Locals:         1       0       0       0       0       0       0       0       0
      Temps:          0       0       0       0       0       0       0       0       0
      Totals:         1       0       0       0       0       0       0       0       0
Total ram usage:        1 bytes
 Hardware stack levels used:    1
 Hardware stack levels required when called:    2
 This function calls:
		Nothing
 This function is called by:
		_main
 This function uses a non-reentrant model


 *************** function _buttonsSetMapByte1 *****************
 Defined at:
		line 268 in file "buttons.c"
 Parameters:    Size  Location     Type
  map             2    0[COMRAM] PTR unsigned char 
		 -> main@cmd(36), 
 Auto vars:     Size  Location     Type
  i               1    2[COMRAM] unsigned char 
 Return value:  Size  Location     Type
                  1    wreg      void 
 Registers used:
		wreg, fsr1l, fsr1h, fsr2l, fsr2h, status,2, status,0
 Tracked objects:
		On entry : 
		On exit  : 
		Unchanged: 
 Data sizes:     COMRAM   BANK0   BANK1   BANK2   BANK3   BANK4   BANK5   BANK6   BANK7
      Params:         2       0       0       0       0       0       0       0       0
      Locals:         1       0       0       0       0       0       0       0       0
      Temps:          0       0       0       0       0       0       0       0       0
      Totals:         3       0       0       0       0       0       0       0       0
Total ram usage:        3 bytes
 Hardware stack levels used:    1
 Hardware stack levels required when called:    2
 This function calls:
		Nothing
 This function is called by:
		_main
 This function uses a non-reentrant model


 *************** function _buttonsSetMapByte0 *****************
 Defined at:
		line 260 in file "buttons.c"
 Parameters:    Size  Location     Type
  map             2    0[COMRAM] PTR unsigned char 
		 -> main@cmd(36), 
 Auto vars:     Size  Location     Type
  i               1    2[COMRAM] unsigned char 
 Return value:  Size  Location     Type
                  1    wreg      void 
 Registers used:
		wreg, fsr1l, fsr1h, fsr2l, fsr2h, status,2, status,0
 Tracked objects:
		On entry : 
		On exit  : 
		Unchanged: 
 Data sizes:     COMRAM   BANK0   BANK1   BANK2   BANK3   BANK4   BANK5   BANK6   BANK7
      Params:         2       0       0       0       0       0       0       0       0
      Locals:         1       0       0       0       0       0       0       0       0
      Temps:          0       0       0       0       0       0       0       0       0
      Totals:         3       0       0       0       0       0       0       0       0
Total ram usage:        3 bytes
 Hardware stack levels used:    1
 Hardware stack levels required when called:    2
 This function calls:
		Nothing
 This function is called by:
		_main
 This function uses a non-reentrant model


 *************** function _buttonsInit *****************
 Defined at:
		line 65 in file "buttons.c"
 Parameters:    Size  Location     Type
		None
 Auto vars:     Size  Location     Type
		None
 Return value:  Size  Location     Type
                  1    wreg      void 
 Registers used:
		wreg, fsr2l, fsr2h, status,2, status,0, cstack
 Tracked objects:
		On entry : 
		On exit  : 
		Unchanged: 
 Data sizes:     COMRAM   BANK0   BANK1   BANK2   BANK3   BANK4   BANK5   BANK6   BANK7
      Params:         0       0       0       0       0       0       0       0       0
      Locals:         0       0       0       0       0       0       0       0       0
      Temps:          0       0       0       0       0       0       0       0       0
      Totals:         0       0       0       0       0       0       0       0       0
Total ram usage:        0 bytes
 Hardware stack levels used:    1
 Hardware stack levels required when called:    3
 This function calls:
		_memset
 This function is called by:
		_main
 This function uses a non-reentrant model


 *************** function _memset *****************
 Defined at:
		line 8 in file "C:\Program Files (x86)\Microchip\xc8\v2.05\pic\sources\c90\common\memset.c"
 Parameters:    Size  Location     Type
  p1              2    0[COMRAM] PTR void 
		 -> buttonsMapByte1(15), buttonsMapByte0(15), config(24), 
  c               2    2[COMRAM] int 
  n               2    4[COMRAM] unsigned int 
 Auto vars:     Size  Location     Type
  p               2    6[COMRAM] PTR unsigned char 
		 -> buttonsMapByte1(15), buttonsMapByte0(15), config(24), 
 Return value:  Size  Location     Type
                  2    0[COMRAM] PTR void 
 Registers used:
		wreg, fsr2l, fsr2h, status,2, status,0
 Tracked objects:
		On entry : 
		On exit  : 
		Unchanged: 
 Data sizes:     COMRAM   BANK0   BANK1   BANK2   BANK3   BANK4   BANK5   BANK6   BANK7
      Params:         6       0       0       0       0       0       0       0       0
      Locals:         2       0       0       0       0       0       0       0       0
      Temps:          0       0       0       0       0       0       0       0       0
      Totals:         8       0       0       0       0       0       0       0       0
Total ram usage:        8 bytes
 Hardware stack levels used:    1
 Hardware stack levels required when called:    2
 This function calls:
		Nothing
 This function is called by:
		_configSetDefault
		_buttonsInit
 This function uses a non-reentrant model


 *************** function _buttonsGetOrigins *****************
 Defined at:
		line 245 in file "buttons.c"
 Parameters:    Size  Location     Type
		None
 Auto vars:     Size  Location     Type
		None
 Return value:  Size  Location     Type
                  2    0[COMRAM] PTR unsigned char 
 Registers used:
		wreg, status,2, status,0
 Tracked objects:
		On entry : 
		On exit  : 
		Unchanged: 
 Data sizes:     COMRAM   BANK0   BANK1   BANK2   BANK3   BANK4   BANK5   BANK6   BANK7
      Params:         2       0       0       0       0       0       0       0       0
      Locals:         0       0       0       0       0       0       0       0       0
      Temps:          0       0       0       0       0       0       0       0       0
      Totals:         2       0       0       0       0       0       0       0       0
Total ram usage:        2 bytes
 Hardware stack levels used:    1
 Hardware stack levels required when called:    2
 This function calls:
		Nothing
 This function is called by:
		_main
 This function uses a non-reentrant model


 *************** function _buttonsGetMessage *****************
 Defined at:
		line 169 in file "buttons.c"
 Parameters:    Size  Location     Type
  analogMode      1    wreg     unsigned char 
  triggersMode    1    0[COMRAM] unsigned char 
 Auto vars:     Size  Location     Type
  analogMode      1    3[COMRAM] unsigned char 
  la              1    0        unsigned char 
  ra              1    0        unsigned char 
 Return value:  Size  Location     Type
                  2    0[COMRAM] PTR unsigned char 
 Registers used:
		wreg, fsr2l, fsr2h, status,2, status,0
 Tracked objects:
		On entry : 
		On exit  : 
		Unchanged: 
 Data sizes:     COMRAM   BANK0   BANK1   BANK2   BANK3   BANK4   BANK5   BANK6   BANK7
      Params:         2       0       0       0       0       0       0       0       0
      Locals:         3       0       0       0       0       0       0       0       0
      Temps:          1       0       0       0       0       0       0       0       0
      Totals:         6       0       0       0       0       0       0       0       0
Total ram usage:        6 bytes
 Hardware stack levels used:    1
 Hardware stack levels required when called:    2
 This function calls:
		Nothing
 This function is called by:
		_main
 This function uses a non-reentrant model


 *************** function _buttonsGetMapByte1 *****************
 Defined at:
		line 286 in file "buttons.c"
 Parameters:    Size  Location     Type
		None
 Auto vars:     Size  Location     Type
  i               1    2[COMRAM] unsigned char 
 Return value:  Size  Location     Type
                  2    0[COMRAM] PTR unsigned char 
 Registers used:
		wreg, fsr1l, fsr1h, fsr2l, fsr2h, status,2, status,0
 Tracked objects:
		On entry : 
		On exit  : 
		Unchanged: 
 Data sizes:     COMRAM   BANK0   BANK1   BANK2   BANK3   BANK4   BANK5   BANK6   BANK7
      Params:         2       0       0       0       0       0       0       0       0
      Locals:         1       0       0       0       0       0       0       0       0
      Temps:          0       0       0       0       0       0       0       0       0
      Totals:         3       0       0       0       0       0       0       0       0
Total ram usage:        3 bytes
 Hardware stack levels used:    1
 Hardware stack levels required when called:    2
 This function calls:
		Nothing
 This function is called by:
		_main
 This function uses a non-reentrant model


 *************** function _buttonsGetMapByte0 *****************
 Defined at:
		line 276 in file "buttons.c"
 Parameters:    Size  Location     Type
		None
 Auto vars:     Size  Location     Type
  i               1    2[COMRAM] unsigned char 
 Return value:  Size  Location     Type
                  2    0[COMRAM] PTR unsigned char 
 Registers used:
		wreg, fsr1l, fsr1h, fsr2l, fsr2h, status,2, status,0
 Tracked objects:
		On entry : 
		On exit  : 
		Unchanged: 
 Data sizes:     COMRAM   BANK0   BANK1   BANK2   BANK3   BANK4   BANK5   BANK6   BANK7
      Params:         2       0       0       0       0       0       0       0       0
      Locals:         1       0       0       0       0       0       0       0       0
      Temps:          0       0       0       0       0       0       0       0       0
      Totals:         3       0       0       0       0       0       0       0       0
Total ram usage:        3 bytes
 Hardware stack levels used:    1
 Hardware stack levels required when called:    2
 This function calls:
		Nothing
 This function is called by:
		_main
 This function uses a non-reentrant model


 *************** function _buttonsBuildLUTs *****************
 Defined at:
		line 323 in file "buttons.c"
 Parameters:    Size  Location     Type
		None
 Auto vars:     Size  Location     Type
		None
 Return value:  Size  Location     Type
                  1    wreg      void 
 Registers used:
		wreg, fsr2l, fsr2h, status,2, status,0, prodl, prodh, cstack
 Tracked objects:
		On entry : 
		On exit  : 
		Unchanged: 
 Data sizes:     COMRAM   BANK0   BANK1   BANK2   BANK3   BANK4   BANK5   BANK6   BANK7
      Params:         0       0       0       0       0       0       0       0       0
      Locals:         0       0       0       0       0       0       0       0       0
      Temps:          0       0       0       0       0       0       0       0       0
      Totals:         0       0       0       0       0       0       0       0       0
Total ram usage:        0 bytes
 Hardware stack levels used:    1
 Hardware stack levels required when called:    4
 This function calls:
		_buttonsBuildLUT
 This function is called by:
		_main
 This function uses a non-reentrant model


 *************** function _buttonsBuildLUT *****************
 Defined at:
		line 296 in file "buttons.c"
 Parameters:    Size  Location     Type
  LUT             2   14[COMRAM] PTR unsigned char 
		 -> LUT_CY(256), LUT_CX(256), LUT_SY(256), LUT_SX(256), 
  minVal          1   16[COMRAM] unsigned char 
  maxVal          1   17[COMRAM] unsigned char 
  origin          1   18[COMRAM] unsigned char 
  dz              1   19[COMRAM] unsigned char 
  dzMode          1   20[COMRAM] unsigned char 
  invert          1   21[COMRAM] unsigned char 
 Auto vars:     Size  Location     Type
  tempVal         2   29[COMRAM] int 
  radius          2   33[COMRAM] int 
  i               2   31[COMRAM] int 
  range           2   27[COMRAM] int 
 Return value:  Size  Location     Type
                  1    wreg      void 
 Registers used:
		wreg, fsr2l, fsr2h, status,2, status,0, prodl, prodh, cstack
 Tracked objects:
		On entry : 
		On exit  : 
		Unchanged: 
 Data sizes:     COMRAM   BANK0   BANK1   BANK2   BANK3   BANK4   BANK5   BANK6   BANK7
      Params:         8       0       0       0       0       0       0       0       0
      Locals:        10       0       0       0       0       0       0       0       0
      Temps:          3       0       0       0       0       0       0       0       0
      Totals:        21       0       0       0       0       0       0       0       0
Total ram usage:       21 bytes
 Hardware stack levels used:    1
 Hardware stack levels required when called:    3
 This function calls:
		___awdiv
		___wmul
 This function is called by:
		_buttonsBuildLUTs
 This function uses a non-reentrant model


 *************** function ___wmul *****************
 Defined at:
		line 15 in file "C:\Program Files (x86)\Microchip\xc8\v2.05\pic\sources\c90\common\Umul16.c"
 Parameters:    Size  Location     Type
  multiplier      2    0[COMRAM] unsigned int 
  multiplicand    2    2[COMRAM] unsigned int 
 Auto vars:     Size  Location     Type
  product         2    4[COMRAM] unsigned int 
 Return value:  Size  Location     Type
                  2    0[COMRAM] unsigned int 
 Registers used:
		wreg, status,2, status,0, prodl, prodh
 Tracked objects:
		On entry : 
		On exit  : 
		Unchanged: 
 Data sizes:     COMRAM   BANK0   BANK1   BANK2   BANK3   BANK4   BANK5   BANK6   BANK7
      Params:         4       0       0       0       0       0       0       0       0
      Locals:         2       0       0       0       0       0       0       0       0
      Temps:          0       0       0       0       0       0       0       0       0
      Totals:         6       0       0       0       0       0       0       0       0
Total ram usage:        6 bytes
 Hardware stack levels used:    1
 Hardware stack levels required when called:    2
 This function calls:
		Nothing
 This function is called by:
		_buttonsBuildLUT
 This function uses a non-reentrant model


 *************** function ___awdiv *****************
 Defined at:
		line 7 in file "C:\Program Files (x86)\Microchip\xc8\v2.05\pic\sources\c90\common\awdiv.c"
 Parameters:    Size  Location     Type
  dividend        2    6[COMRAM] int 
  divisor         2    8[COMRAM] int 
 Auto vars:     Size  Location     Type
  quotient        2   12[COMRAM] int 
  sign            1   11[COMRAM] unsigned char 
  counter         1   10[COMRAM] unsigned char 
 Return value:  Size  Location     Type
                  2    6[COMRAM] int 
 Registers used:
		wreg, status,2, status,0
 Tracked objects:
		On entry : 
		On exit  : 
		Unchanged: 
 Data sizes:     COMRAM   BANK0   BANK1   BANK2   BANK3   BANK4   BANK5   BANK6   BANK7
      Params:         4       0       0       0       0       0       0       0       0
      Locals:         4       0       0       0       0       0       0       0       0
      Temps:          0       0       0       0       0       0       0       0       0
      Totals:         8       0       0       0       0       0       0       0       0
Total ram usage:        8 bytes
 Hardware stack levels used:    1
 Hardware stack levels required when called:    2
 This function calls:
		Nothing
 This function is called by:
		_buttonsBuildLUT
 This function uses a non-reentrant model


 *************** function _bootPayload *****************
 Defined at:
		line 501 in file "main.c"
 Parameters:    Size  Location     Type
		None
 Auto vars:     Size  Location     Type
  addr            2    0        unsigned int 
 Return value:  Size  Location     Type
                  1    wreg      void 
 Registers used:
		wreg, status,2, status,0
 Tracked objects:
		On entry : 
		On exit  : 
		Unchanged: 
 Data sizes:     COMRAM   BANK0   BANK1   BANK2   BANK3   BANK4   BANK5   BANK6   BANK7
      Params:         0       0       0       0       0       0       0       0       0
      Locals:         2       0       0       0       0       0       0       0       0
      Temps:          0       0       0       0       0       0       0       0       0
      Totals:         2       0       0       0       0       0       0       0       0
Total ram usage:        2 bytes
 Hardware stack levels used:    1
 Hardware stack levels required when called:    2
 This function calls:
		Nothing
 This function is called by:
		_main
 This function uses a non-reentrant model


 *************** function _SISendMessage *****************
 Defined at:
		line 194 in file "si.c"
 Parameters:    Size  Location     Type
  msg             2    6[COMRAM] PTR unsigned char 
		 -> buttonsMessage(8), main@msgAnswer(36), 
  len             1    8[COMRAM] unsigned char 
 Auto vars:     Size  Location     Type
  leftToSend      1   15[COMRAM] char 
  idx             1   14[COMRAM] unsigned char 
 Return value:  Size  Location     Type
                  1    wreg      void 
 Registers used:
		wreg, fsr2l, fsr2h, status,2, status,0
 Tracked objects:
		On entry : 
		On exit  : 
		Unchanged: 
 Data sizes:     COMRAM   BANK0   BANK1   BANK2   BANK3   BANK4   BANK5   BANK6   BANK7
      Params:         3       0       0       0       0       0       0       0       0
      Locals:         2       0       0       0       0       0       0       0       0
      Temps:          5       0       0       0       0       0       0       0       0
      Totals:        10       0       0       0       0       0       0       0       0
Total ram usage:       10 bytes
 Hardware stack levels used:    1
 Hardware stack levels required when called:    2
 This function calls:
		Nothing
 This function is called by:
		_main
 This function uses a non-reentrant model


 *************** function _SIInit *****************
 Defined at:
		line 75 in file "si.c"
 Parameters:    Size  Location     Type
		None
 Auto vars:     Size  Location     Type
		None
 Return value:  Size  Location     Type
                  1    wreg      void 
 Registers used:
		wreg, status,2, cstack
 Tracked objects:
		On entry : 
		On exit  : 
		Unchanged: 
 Data sizes:     COMRAM   BANK0   BANK1   BANK2   BANK3   BANK4   BANK5   BANK6   BANK7
      Params:         0       0       0       0       0       0       0       0       0
      Locals:         0       0       0       0       0       0       0       0       0
      Temps:          0       0       0       0       0       0       0       0       0
      Totals:         0       0       0       0       0       0       0       0       0
Total ram usage:        0 bytes
 Hardware stack levels used:    1
 Hardware stack levels required when called:    3
 This function calls:
		_SIConfigureCLC
 This function is called by:
		_main
 This function uses a non-reentrant model


 *************** function _SIConfigureCLC *****************
 Defined at:
		line 129 in file "si.c"
 Parameters:    Size  Location     Type
		None
 Auto vars:     Size  Location     Type
		None
 Return value:  Size  Location     Type
                  1    wreg      void 
 Registers used:
		wreg, status,2
 Tracked objects:
		On entry : 
		On exit  : 
		Unchanged: 
 Data sizes:     COMRAM   BANK0   BANK1   BANK2   BANK3   BANK4   BANK5   BANK6   BANK7
      Params:         0       0       0       0       0       0       0       0       0
      Locals:         0       0       0       0       0       0       0       0       0
      Temps:          0       0       0       0       0       0       0       0       0
      Totals:         0       0       0       0       0       0       0       0       0
Total ram usage:        0 bytes
 Hardware stack levels used:    1
 Hardware stack levels required when called:    2
 This function calls:
		Nothing
 This function is called by:
		_SIInit
 This function uses a non-reentrant model


 *************** function _SIGetCommand *****************
 Defined at:
		line 257 in file "si.c"
 Parameters:    Size  Location     Type
  msg             2    0[COMRAM] PTR unsigned char 
		 -> main@cmd(36), 
 Auto vars:     Size  Location     Type
  i               1    2[COMRAM] unsigned char 
 Return value:  Size  Location     Type
                  1    wreg      unsigned char 
 Registers used:
		wreg, fsr1l, fsr1h, fsr2l, fsr2h, status,2, status,0
 Tracked objects:
		On entry : 
		On exit  : 
		Unchanged: 
 Data sizes:     COMRAM   BANK0   BANK1   BANK2   BANK3   BANK4   BANK5   BANK6   BANK7
      Params:         2       0       0       0       0       0       0       0       0
      Locals:         1       0       0       0       0       0       0       0       0
      Temps:          0       0       0       0       0       0       0       0       0
      Totals:         3       0       0       0       0       0       0       0       0
Total ram usage:        3 bytes
 Hardware stack levels used:    1
 Hardware stack levels required when called:    2
 This function calls:
		Nothing
 This function is called by:
		_main
 This function uses a non-reentrant model


 *************** function _SIClear *****************
 Defined at:
		line 283 in file "si.c"
 Parameters:    Size  Location     Type
		None
 Auto vars:     Size  Location     Type
		None
 Return value:  Size  Location     Type
                  1    wreg      void 
 Registers used:
		wreg, status,2
 Tracked objects:
		On entry : 
		On exit  : 
		Unchanged: 
 Data sizes:     COMRAM   BANK0   BANK1   BANK2   BANK3   BANK4   BANK5   BANK6   BANK7
      Params:         0       0       0       0       0       0       0       0       0
      Locals:         0       0       0       0       0       0       0       0       0
      Temps:          0       0       0       0       0       0       0       0       0
      Totals:         0       0       0       0       0       0       0       0       0
Total ram usage:        0 bytes
 Hardware stack levels used:    1
 Hardware stack levels required when called:    2
 This function calls:
		Nothing
 This function is called by:
		_main
 This function uses a non-reentrant model


 *************** function _PGMWriteBlock *****************
 Defined at:
		line 55 in file "nvm.c"
 Parameters:    Size  Location     Type
  addr            2    4[COMRAM] unsigned int 
  data            2    6[COMRAM] PTR unsigned char 
		 -> main@flashBuffer(64), 
 Auto vars:     Size  Location     Type
  i               2   10[COMRAM] unsigned int 
 Return value:  Size  Location     Type
                  1    wreg      void 
 Registers used:
		wreg, fsr2l, fsr2h, status,2, status,0, cstack
 Tracked objects:
		On entry : 
		On exit  : 
		Unchanged: 
 Data sizes:     COMRAM   BANK0   BANK1   BANK2   BANK3   BANK4   BANK5   BANK6   BANK7
      Params:         4       0       0       0       0       0       0       0       0
      Locals:         2       0       0       0       0       0       0       0       0
      Temps:          2       0       0       0       0       0       0       0       0
      Totals:         8       0       0       0       0       0       0       0       0
Total ram usage:        8 bytes
 Hardware stack levels used:    1
 Hardware stack levels required when called:    4
 This function calls:
		_NVMUnlock
		_PGMEraseRow
 This function is called by:
		_main
 This function uses a non-reentrant model


 *************** function _PGMEraseRow *****************
 Defined at:
		line 37 in file "nvm.c"
 Parameters:    Size  Location     Type
  addr            2    0[COMRAM] unsigned int 
 Auto vars:     Size  Location     Type
		None
 Return value:  Size  Location     Type
                  1    wreg      void 
 Registers used:
		wreg, status,2, status,0, cstack
 Tracked objects:
		On entry : 
		On exit  : 
		Unchanged: 
 Data sizes:     COMRAM   BANK0   BANK1   BANK2   BANK3   BANK4   BANK5   BANK6   BANK7
      Params:         2       0       0       0       0       0       0       0       0
      Locals:         0       0       0       0       0       0       0       0       0
      Temps:          2       0       0       0       0       0       0       0       0
      Totals:         4       0       0       0       0       0       0       0       0
Total ram usage:        4 bytes
 Hardware stack levels used:    1
 Hardware stack levels required when called:    3
 This function calls:
		_NVMUnlock
 This function is called by:
		_PGMWriteBlock
 This function uses a non-reentrant model


 *************** function _NVMUnlock *****************
 Defined at:
		line 29 in file "nvm.c"
 Parameters:    Size  Location     Type
		None
 Auto vars:     Size  Location     Type
		None
 Return value:  Size  Location     Type
                  1    wreg      void 
 Registers used:
		wreg, status,2
 Tracked objects:
		On entry : 
		On exit  : 
		Unchanged: 
 Data sizes:     COMRAM   BANK0   BANK1   BANK2   BANK3   BANK4   BANK5   BANK6   BANK7
      Params:         0       0       0       0       0       0       0       0       0
      Locals:         0       0       0       0       0       0       0       0       0
      Temps:          0       0       0       0       0       0       0       0       0
      Totals:         0       0       0       0       0       0       0       0       0
Total ram usage:        0 bytes
 Hardware stack levels used:    1
 Hardware stack levels required when called:    2
 This function calls:
		Nothing
 This function is called by:
		_PGMEraseRow
		_PGMWriteBlock
		_EEPROMWriteByte
 This function uses a non-reentrant model


 *************** function _PGMReadBlock *****************
 Defined at:
		line 89 in file "nvm.c"
 Parameters:    Size  Location     Type
  addr            2    0[COMRAM] unsigned int 
  data            2    2[COMRAM] PTR unsigned char 
		 -> main@flashBuffer(64), 
 Auto vars:     Size  Location     Type
  i               2    6[COMRAM] unsigned int 
 Return value:  Size  Location     Type
                  1    wreg      void 
 Registers used:
		wreg, fsr2l, fsr2h, status,2, status,0
 Tracked objects:
		On entry : 
		On exit  : 
		Unchanged: 
 Data sizes:     COMRAM   BANK0   BANK1   BANK2   BANK3   BANK4   BANK5   BANK6   BANK7
      Params:         4       0       0       0       0       0       0       0       0
      Locals:         2       0       0       0       0       0       0       0       0
      Temps:          2       0       0       0       0       0       0       0       0
      Totals:         8       0       0       0       0       0       0       0       0
Total ram usage:        8 bytes
 Hardware stack levels used:    1
 Hardware stack levels required when called:    2
 This function calls:
		Nothing
 This function is called by:
		_main
 This function uses a non-reentrant model


 *************** function _ADCInit *****************
 Defined at:
		line 41 in file "adc.c"
 Parameters:    Size  Location     Type
  sxCh            1    wreg     unsigned char 
  syCh            1    0[COMRAM] unsigned char 
  cxCh            1    1[COMRAM] unsigned char 
  cyCh            1    2[COMRAM] unsigned char 
 Auto vars:     Size  Location     Type
  sxCh            1    7[COMRAM] unsigned char 
  i               1    8[COMRAM] unsigned char 
 Return value:  Size  Location     Type
                  1    wreg      void 
 Registers used:
		wreg, fsr2l, fsr2h, status,2, status,0
 Tracked objects:
		On entry : 
		On exit  : 
		Unchanged: 
 Data sizes:     COMRAM   BANK0   BANK1   BANK2   BANK3   BANK4   BANK5   BANK6   BANK7
      Params:         3       0       0       0       0       0       0       0       0
      Locals:         2       0       0       0       0       0       0       0       0
      Temps:          4       0       0       0       0       0       0       0       0
      Totals:         9       0       0       0       0       0       0       0       0
Total ram usage:        9 bytes
 Hardware stack levels used:    1
 Hardware stack levels required when called:    2
 This function calls:
		Nothing
 This function is called by:
		_main
 This function uses a non-reentrant model


 *************** function _hi_int *****************
 Defined at:
		line 38 in file "si.c"
 Parameters:    Size  Location     Type
		None
 Auto vars:     Size  Location     Type
		None
 Return value:  Size  Location     Type
                  1    wreg      void 
 Registers used:
		wreg, fsr2l, fsr2h, status,2, status,0, cstack
 Tracked objects:
		On entry : 
		On exit  : 
		Unchanged: 
 Data sizes:     COMRAM   BANK0   BANK1   BANK2   BANK3   BANK4   BANK5   BANK6   BANK7
      Params:         0       0       0       0       0       0       0       0       0
      Locals:         0       0       0       0       0       0       0       0       0
      Temps:          0       0       0       0       0       0       0       0       0
      Totals:         0       0       0       0       0       0       0       0       0
Total ram usage:        0 bytes
 Hardware stack levels used:    1
 Hardware stack levels required when called:    1
 This function calls:
		i2_SIClear
 This function is called by:
		Interrupt level 2
 This function uses a non-reentrant model


 *************** function i2_SIClear *****************
 Defined at:
		line 283 in file "si.c"
 Parameters:    Size  Location     Type
		None
 Auto vars:     Size  Location     Type
		None
 Return value:  Size  Location     Type
                  1    wreg      void 
 Registers used:
		wreg, status,2
 Tracked objects:
		On entry : 
		On exit  : 
		Unchanged: 
 Data sizes:     COMRAM   BANK0   BANK1   BANK2   BANK3   BANK4   BANK5   BANK6   BANK7
      Params:         0       0       0       0       0       0       0       0       0
      Locals:         0       0       0       0       0       0       0       0       0
      Temps:          0       0       0       0       0       0       0       0       0
      Totals:         0       0       0       0       0       0       0       0       0
Total ram usage:        0 bytes
 Hardware stack levels used:    1
 This function calls:
		Nothing
 This function is called by:
		_hi_int
 This function uses a non-reentrant model



MODULE INFORMATION

Module		Function		Class		Link	Load	Size
nvm.c
		_EEPROMWriteByte		CODE           	1734	0000	37
		_PGMReadBlock  		CODE           	12CC	0000	119
		_EEPROMReadByte		CODE           	1758	0000	21
		_NVMUnlock     		CODE           	177E	0000	19
		_PGMEraseRow   		CODE           	14CE	0000	89
		_PGMWriteBlock 		CODE           	1154	0000	131

nvm.c estimated size: 416

si.c
		_SIInit        		CODE           	1042	0000	139
		_SISendMessage 		CODE           	0D34	0000	217
		_hi_int        		CODE           	1342	0000	107
		_SIConfigureCLC		CODE           	0C52	0000	227
		_SIGetCommand  		CODE           	15A8	0000	61
		_SIClear       		CODE           	176C	0000	19

si.c estimated size: 770

C:\Program Files (x86)\Microchip\xc8\v2.05\pic\sources\c90\common\Umul16.c
		___wmul        		CODE           	1682	0000	47

C:\Program Files (x86)\Microchip\xc8\v2.05\pic\sources\c90\common\Umul16.c estimated size: 47

buttons.c
		_buttonsGetOrigins		CODE           	156A	0000	63
		_buttonsSetOrigins		CODE           	1412	0000	101
		_buttonsBuildLUT		CODE           	0AA0	0000	435
		_buttonsInit   		CODE           	11D6	0000	129
		_buttonsBuildLUTs		CODE           	0E0C	0000	211
		_buttonsUpdate 		CODE           	05DA	0000	783
		_buttonsGetMessage		CODE           	0EDE	0000	197
		_buttonsGetMapByte0		CODE           	164E	0000	53
		_buttonsSetMapByte0		CODE           	1708	0000	45
		_buttonsGetMapByte1		CODE           	161A	0000	53
		_buttonsSetMapByte1		CODE           	16DC	0000	45

buttons.c estimated size: 2115

adc.c
		_ADCInit       		CODE           	08E8	0000	441

adc.c estimated size: 441

config.c
		_configInit    		CODE           	1476	0000	89
		_configSetDefault		CODE           	1256	0000	119
		_configFlashAll		CODE           	16B0	0000	45

config.c estimated size: 253

C:\Program Files (x86)\Microchip\xc8\v2.05\pic\sources\c90\common\awdiv.c
		___awdiv       		CODE           	10CC	0000	137

C:\Program Files (x86)\Microchip\xc8\v2.05\pic\sources\c90\common\awdiv.c estimated size: 137

shared
		__initialization		CODE           	0FA2	0000	151
		i2_SIClear     		CODE           	1790	0000	19

shared estimated size: 170

C:\Program Files (x86)\Microchip\xc8\v2.05\pic\sources\c90\common\memset.c
		_memset        		CODE           	15E4	0000	55

C:\Program Files (x86)\Microchip\xc8\v2.05\pic\sources\c90\common\memset.c estimated size: 55

main.c
		_portsInit     		CODE           	13AC	0000	103
		_main          		CODE           	001E	0000	1469
		_bootPayload   		CODE           	1526	0000	69

main.c estimated size: 1641

